target datalayout = "e-m:e-p270:32:32-p271:32:32-p272:64:64-i64:64-i128:128-f80:128-n8:16:32:64-S128"
target triple = "x86_64-pc-linux-gnu"

%struct._cms_NAMEDCOLORLIST_struct = type { i32, i32, i32, [33 x i8], [33 x i8], ptr, ptr }

; Function Attrs: nounwind uwtable
define hidden ptr @_cmsStageAllocNamedColor(ptr noundef %0, i32 noundef %1) #0 {
  %3 = alloca ptr, align 8
  %4 = alloca i32, align 4
  store ptr %0, ptr %3, align 8
  store i32 %1, ptr %4, align 4
  %5 = load ptr, ptr %3, align 8
  %6 = getelementptr inbounds %struct._cms_NAMEDCOLORLIST_struct, ptr %5, i32 0, i32 6
  %7 = load ptr, ptr %6, align 8
  %8 = load i32, ptr %4, align 4
  %9 = icmp ne i32 %8, 0
  br i1 %9, label %10, label %11

10:                                               ; preds = %2
  br label %15

11:                                               ; preds = %2
  %12 = load ptr, ptr %3, align 8
  %13 = getelementptr inbounds %struct._cms_NAMEDCOLORLIST_struct, ptr %12, i32 0, i32 2
  %14 = load i32, ptr %13, align 8
  br label %15

15:                                               ; preds = %11, %10
  %16 = phi i32 [ 3, %10 ], [ %14, %11 ]
  %17 = load i32, ptr %4, align 4
  %18 = icmp ne i32 %17, 0
  %19 = select i1 %18, ptr @EvalNamedColorPCS, ptr @EvalNamedColor
  %20 = load ptr, ptr %3, align 8
  %21 = call ptr @cmsDupNamedColorList(ptr noundef %20)
  %22 = call ptr @_cmsStageAllocPlaceholder(ptr noundef %7, i32 noundef 1852009504, i32 noundef 1, i32 noundef %16, ptr noundef %19, ptr noundef @DupNamedColorList, ptr noundef @FreeNamedColorList, ptr noundef %21)
  ret ptr %22
}