; Function Attrs: nounwind uwtable
define hidden ptr @_cmsStageAllocNamedColor(ptr noundef %0, i32 noundef %1) local_unnamed_addr #0 {
  %3 = getelementptr inbounds i8, ptr %0, i64 88
  %4 = load ptr, ptr %3, align 8
  %.not = icmp eq i32 %1, 0
  br i1 %.not, label %5, label %8

5:                                                ; preds = %2
  %6 = getelementptr inbounds i8, ptr %0, i64 8
  %7 = load i32, ptr %6, align 8
  br label %8

8:                                                ; preds = %2, %5
  %9 = phi ptr [ @EvalNamedColor, %5 ], [ @EvalNamedColorPCS, %2 ]
  %10 = phi i32 [ %7, %5 ], [ 3, %2 ]
  %11 = tail call ptr @cmsDupNamedColorList(ptr noundef nonnull %0)
  %12 = tail call ptr @_cmsStageAllocPlaceholder(ptr noundef %4, i32 noundef 1852009504, i32 noundef 1, i32 noundef %10, ptr noundef nonnull %9, ptr noundef nonnull @DupNamedColorList, ptr noundef nonnull @FreeNamedColorList, ptr noundef %11) #12
  ret ptr %12
}